; Function Attrs: mustprogress nounwind uwtable
define dso_local noundef i32 @_ZN4node6crypto8SignBase4InitEPKc(ptr nocapture noundef nonnull align 8 dereferenceable(40) %this, ptr noundef %sign_type) local_unnamed_addr #3 align 2 {
entry:
  %mdctx_ = getelementptr inbounds i8, ptr %this, i64 32
  %0 = load ptr, ptr %mdctx_, align 8
  %cmp.i.not.i = icmp eq ptr %0, null
  br i1 %cmp.i.not.i, label %do.end5, label %do.body4

do.body4:                                         ; preds = %entry
  tail call void @_ZN4node6AssertERKNS_13AssertionInfoE(ptr noundef nonnull align 8 dereferenceable(24) @_ZZN4node6crypto8SignBase4InitEPKcE4args) #21
  tail call void @abort() #22
  unreachable

do.end5:                                          ; preds = %entry
  %call6 = tail call i32 @strcmp(ptr noundef nonnull dereferenceable(1) %sign_type, ptr noundef nonnull dereferenceable(5) @.str.3) #23
  %cmp = icmp eq i32 %call6, 0
  br i1 %cmp, label %if.then9, label %lor.lhs.false

lor.lhs.false:                                    ; preds = %do.end5
  %call7 = tail call i32 @strcmp(ptr noundef nonnull dereferenceable(1) %sign_type, ptr noundef nonnull dereferenceable(5) @.str.4) #23
  %cmp8 = icmp eq i32 %call7, 0
  br i1 %cmp8, label %if.then9, label %if.end10

if.then9:                                         ; preds = %lor.lhs.false, %do.end5
  br label %if.end10

if.end10:                                         ; preds = %if.then9, %lor.lhs.false
  %sign_type.addr.0 = phi ptr [ @.str.5, %if.then9 ], [ %sign_type, %lor.lhs.false ]
  %call11 = tail call ptr @EVP_get_digestbyname(ptr noundef %sign_type.addr.0) #21
  %cmp12 = icmp eq ptr %call11, null
  br i1 %cmp12, label %return, label %if.end14

if.end14:                                         ; preds = %if.end10
  %call16 = tail call ptr @EVP_MD_CTX_new() #21
  %1 = load ptr, ptr %mdctx_, align 8
  store ptr %call16, ptr %mdctx_, align 8
  %tobool.not.i.i = icmp eq ptr %1, null
  br i1 %tobool.not.i.i, label %_ZNSt10unique_ptrI13evp_md_ctx_stN4node15FunctionDeleterIS0_XadL_Z15EVP_MD_CTX_freeEEEEE5resetEPS0_.exit, label %if.then.i.i

if.then.i.i:                                      ; preds = %if.end14
  tail call void @EVP_MD_CTX_free(ptr noundef nonnull %1) #21
  %.pr = load ptr, ptr %mdctx_, align 8
  br label %_ZNSt10unique_ptrI13evp_md_ctx_stN4node15FunctionDeleterIS0_XadL_Z15EVP_MD_CTX_freeEEEEE5resetEPS0_.exit

_ZNSt10unique_ptrI13evp_md_ctx_stN4node15FunctionDeleterIS0_XadL_Z15EVP_MD_CTX_freeEEEEE5resetEPS0_.exit: ; preds = %if.end14, %if.then.i.i
  %2 = phi ptr [ %call16, %if.end14 ], [ %.pr, %if.then.i.i ]
  %cmp.i.not = icmp eq ptr %2, null
  br i1 %cmp.i.not, label %if.then23.thread, label %lor.lhs.false19

if.then23.thread:                                 ; preds = %_ZNSt10unique_ptrI13evp_md_ctx_stN4node15FunctionDeleterIS0_XadL_Z15EVP_MD_CTX_freeEEEEE5resetEPS0_.exit
  store ptr null, ptr %mdctx_, align 8
  br label %return

lor.lhs.false19:                                  ; preds = %_ZNSt10unique_ptrI13evp_md_ctx_stN4node15FunctionDeleterIS0_XadL_Z15EVP_MD_CTX_freeEEEEE5resetEPS0_.exit
  %call22 = tail call i32 @EVP_DigestInit_ex(ptr noundef nonnull %2, ptr noundef nonnull %call11, ptr noundef null) #21
  %tobool.not = icmp eq i32 %call22, 0
  br i1 %tobool.not, label %if.then23, label %return

if.then23:                                        ; preds = %lor.lhs.false19
  %.pre = load ptr, ptr %mdctx_, align 8
  store ptr null, ptr %mdctx_, align 8
  %tobool.not.i.i4 = icmp eq ptr %.pre, null
  br i1 %tobool.not.i.i4, label %return, label %if.then.i.i5

if.then.i.i5:                                     ; preds = %if.then23
  tail call void @EVP_MD_CTX_free(ptr noundef nonnull %.pre) #21
  br label %return

return:                                           ; preds = %if.then23.thread, %if.then.i.i5, %if.then23, %lor.lhs.false19, %if.end10
  %retval.0 = phi i32 [ 1, %if.end10 ], [ 0, %lor.lhs.false19 ], [ 2, %if.then23 ], [ 2, %if.then.i.i5 ], [ 2, %if.then23.thread ]
  ret i32 %retval.0
}